; Function Attrs: nounwind uwtable
define void @Gia_ManGenCompact(ptr noundef %0, ptr noundef readonly captures(none) %1, ptr noundef readonly captures(none) %2, ptr noundef readonly captures(none) %3, ptr noundef captures(none) %4, ptr noundef captures(none) %5) local_unnamed_addr #0 {
  %7 = alloca i32, align 4
  %8 = alloca i32, align 4
  %9 = getelementptr inbounds nuw i8, ptr %5, i64 4
  %10 = load i32, ptr %9, align 4, !tbaa !41
  %11 = load i32, ptr %5, align 8, !tbaa !43
  %12 = icmp eq i32 %10, %11
  br i1 %12, label %13, label %.Vec_IntGrow.exit10_crit_edge.i

.Vec_IntGrow.exit10_crit_edge.i:                  ; preds = %6
  %.phi.trans.insert.i = getelementptr inbounds nuw i8, ptr %5, i64 8
  %.pre.i = load ptr, ptr %.phi.trans.insert.i, align 8, !tbaa !44
  br label %Vec_IntPush.exit

13:                                               ; preds = %6
  %14 = icmp slt i32 %10, 16
  br i1 %14, label %15, label %23

15:                                               ; preds = %13
  %16 = getelementptr inbounds nuw i8, ptr %5, i64 8
  %17 = load ptr, ptr %16, align 8, !tbaa !44
  %.not9.i.i = icmp eq ptr %17, null
  br i1 %.not9.i.i, label %20, label %18

18:                                               ; preds = %15
  %19 = tail call dereferenceable_or_null(64) ptr @realloc(ptr noundef nonnull %17, i64 noundef 64) #22
  br label %Vec_IntGrow.exit.i

20:                                               ; preds = %15
  %21 = tail call noalias dereferenceable_or_null(64) ptr @malloc(i64 noundef 64) #23
  br label %Vec_IntGrow.exit.i

Vec_IntGrow.exit.i:                               ; preds = %20, %18
  %22 = phi ptr [ %19, %18 ], [ %21, %20 ]
  store ptr %22, ptr %16, align 8, !tbaa !44
  store i32 16, ptr %5, align 8, !tbaa !43
  br label %Vec_IntPush.exit

23:                                               ; preds = %13
  %24 = shl nuw nsw i32 %10, 1
  %25 = getelementptr inbounds nuw i8, ptr %5, i64 8
  %26 = load ptr, ptr %25, align 8, !tbaa !44
  %.not9.i9.i = icmp eq ptr %26, null
  %27 = zext nneg i32 %24 to i64
  %28 = shl nuw nsw i64 %27, 2
  br i1 %.not9.i9.i, label %31, label %29

29:                                               ; preds = %23
  %30 = tail call ptr @realloc(ptr noundef nonnull %26, i64 noundef %28) #22
  br label %33

31:                                               ; preds = %23
  %32 = tail call noalias ptr @malloc(i64 noundef %28) #23
  br label %33

33:                                               ; preds = %31, %29
  %34 = phi ptr [ %30, %29 ], [ %32, %31 ]
  store ptr %34, ptr %25, align 8, !tbaa !44
  store i32 %24, ptr %5, align 8, !tbaa !43
  br label %Vec_IntPush.exit

Vec_IntPush.exit:                                 ; preds = %.Vec_IntGrow.exit10_crit_edge.i, %Vec_IntGrow.exit.i, %33
  %35 = phi ptr [ %.pre.i, %.Vec_IntGrow.exit10_crit_edge.i ], [ %34, %33 ], [ %22, %Vec_IntGrow.exit.i ]
  %36 = load i32, ptr %9, align 4, !tbaa !41
  %37 = add nsw i32 %36, 1
  store i32 %37, ptr %9, align 4, !tbaa !41
  %38 = sext i32 %36 to i64
  %39 = getelementptr inbounds i32, ptr %35, i64 %38
  store i32 0, ptr %39, align 4, !tbaa !19
  call void @llvm.lifetime.start.p0(i64 4, ptr nonnull %7) #21
  call void @llvm.lifetime.start.p0(i64 4, ptr nonnull %8) #21
  %40 = getelementptr i8, ptr %1, i64 4
  %.val33 = load i32, ptr %40, align 4, !tbaa !41
  %41 = icmp sgt i32 %.val33, 0
  br i1 %41, label %.lr.ph, label %.critedge

.lr.ph:                                           ; preds = %Vec_IntPush.exit
  %42 = getelementptr i8, ptr %1, i64 8
  %43 = getelementptr i8, ptr %2, i64 8
  %44 = getelementptr i8, ptr %3, i64 8
  %45 = getelementptr inbounds nuw i8, ptr %4, i64 4
  %.phi.trans.insert.i20 = getelementptr inbounds nuw i8, ptr %4, i64 8
  %.phi.trans.insert.i27 = getelementptr inbounds nuw i8, ptr %5, i64 8
  br label %46

46:                                               ; preds = %.lr.ph, %Vec_IntPush.exit32
  %indvars.iv = phi i64 [ 0, %.lr.ph ], [ %indvars.iv.next, %Vec_IntPush.exit32 ]
  %.val18 = load ptr, ptr %42, align 8, !tbaa !44
  %47 = getelementptr inbounds nuw i32, ptr %.val18, i64 %indvars.iv
  %48 = load i32, ptr %47, align 4, !tbaa !19
  %.val17 = load ptr, ptr %43, align 8, !tbaa !44
  %49 = getelementptr inbounds nuw i32, ptr %.val17, i64 %indvars.iv
  %50 = load i32, ptr %49, align 4, !tbaa !19
  %.val16 = load ptr, ptr %44, align 8, !tbaa !44
  %51 = getelementptr inbounds nuw i32, ptr %.val16, i64 %indvars.iv
  %52 = load i32, ptr %51, align 4, !tbaa !19
  call void @Wlc_BlastFullAdder(ptr noundef %0, i32 noundef %48, i32 noundef %50, i32 noundef %52, ptr noundef nonnull %8, ptr noundef nonnull %7) #21
  %53 = load i32, ptr %7, align 4, !tbaa !19
  %54 = load i32, ptr %45, align 4, !tbaa !41
  %55 = load i32, ptr %4, align 8, !tbaa !43
  %56 = icmp eq i32 %54, %55
  br i1 %56, label %57, label %.Vec_IntGrow.exit10_crit_edge.i19

.Vec_IntGrow.exit10_crit_edge.i19:                ; preds = %46
  %.pre.i21 = load ptr, ptr %.phi.trans.insert.i20, align 8, !tbaa !44
  br label %Vec_IntPush.exit25

57:                                               ; preds = %46
  %58 = icmp slt i32 %54, 16
  br i1 %58, label %59, label %66

59:                                               ; preds = %57
  %60 = load ptr, ptr %.phi.trans.insert.i20, align 8, !tbaa !44
  %.not9.i.i23 = icmp eq ptr %60, null
  br i1 %.not9.i.i23, label %63, label %61

61:                                               ; preds = %59
  %62 = call dereferenceable_or_null(64) ptr @realloc(ptr noundef nonnull %60, i64 noundef 64) #22
  br label %Vec_IntGrow.exit.i24

63:                                               ; preds = %59
  %64 = call noalias dereferenceable_or_null(64) ptr @malloc(i64 noundef 64) #23
  br label %Vec_IntGrow.exit.i24

Vec_IntGrow.exit.i24:                             ; preds = %63, %61
  %65 = phi ptr [ %62, %61 ], [ %64, %63 ]
  store ptr %65, ptr %.phi.trans.insert.i20, align 8, !tbaa !44
  store i32 16, ptr %4, align 8, !tbaa !43
  br label %Vec_IntPush.exit25

66:                                               ; preds = %57
  %67 = shl nuw nsw i32 %54, 1
  %68 = load ptr, ptr %.phi.trans.insert.i20, align 8, !tbaa !44
  %.not9.i9.i22 = icmp eq ptr %68, null
  %69 = zext nneg i32 %67 to i64
  %70 = shl nuw nsw i64 %69, 2
  br i1 %.not9.i9.i22, label %73, label %71

71:                                               ; preds = %66
  %72 = call ptr @realloc(ptr noundef nonnull %68, i64 noundef %70) #22
  br label %75

73:                                               ; preds = %66
  %74 = call noalias ptr @malloc(i64 noundef %70) #23
  br label %75

75:                                               ; preds = %73, %71
  %76 = phi ptr [ %72, %71 ], [ %74, %73 ]
  store ptr %76, ptr %.phi.trans.insert.i20, align 8, !tbaa !44
  store i32 %67, ptr %4, align 8, !tbaa !43
  br label %Vec_IntPush.exit25

Vec_IntPush.exit25:                               ; preds = %.Vec_IntGrow.exit10_crit_edge.i19, %Vec_IntGrow.exit.i24, %75
  %77 = phi ptr [ %.pre.i21, %.Vec_IntGrow.exit10_crit_edge.i19 ], [ %76, %75 ], [ %65, %Vec_IntGrow.exit.i24 ]
  %78 = load i32, ptr %45, align 4, !tbaa !41
  %79 = add nsw i32 %78, 1
  store i32 %79, ptr %45, align 4, !tbaa !41
  %80 = sext i32 %78 to i64
  %81 = getelementptr inbounds i32, ptr %77, i64 %80
  store i32 %53, ptr %81, align 4, !tbaa !19
  %82 = load i32, ptr %8, align 4, !tbaa !19
  %83 = load i32, ptr %9, align 4, !tbaa !41
  %84 = load i32, ptr %5, align 8, !tbaa !43
  %85 = icmp eq i32 %83, %84
  br i1 %85, label %86, label %.Vec_IntGrow.exit10_crit_edge.i26

.Vec_IntGrow.exit10_crit_edge.i26:                ; preds = %Vec_IntPush.exit25
  %.pre.i28 = load ptr, ptr %.phi.trans.insert.i27, align 8, !tbaa !44
  br label %Vec_IntPush.exit32

86:                                               ; preds = %Vec_IntPush.exit25
  %87 = icmp slt i32 %83, 16
  br i1 %87, label %88, label %95

88:                                               ; preds = %86
  %89 = load ptr, ptr %.phi.trans.insert.i27, align 8, !tbaa !44
  %.not9.i.i30 = icmp eq ptr %89, null
  br i1 %.not9.i.i30, label %92, label %90

90:                                               ; preds = %88
  %91 = call dereferenceable_or_null(64) ptr @realloc(ptr noundef nonnull %89, i64 noundef 64) #22
  br label %Vec_IntGrow.exit.i31

92:                                               ; preds = %88
  %93 = call noalias dereferenceable_or_null(64) ptr @malloc(i64 noundef 64) #23
  br label %Vec_IntGrow.exit.i31

Vec_IntGrow.exit.i31:                             ; preds = %92, %90
  %94 = phi ptr [ %91, %90 ], [ %93, %92 ]
  store ptr %94, ptr %.phi.trans.insert.i27, align 8, !tbaa !44
  store i32 16, ptr %5, align 8, !tbaa !43
  br label %Vec_IntPush.exit32

95:                                               ; preds = %86
  %96 = shl nuw nsw i32 %83, 1
  %97 = load ptr, ptr %.phi.trans.insert.i27, align 8, !tbaa !44
  %.not9.i9.i29 = icmp eq ptr %97, null
  %98 = zext nneg i32 %96 to i64
  %99 = shl nuw nsw i64 %98, 2
  br i1 %.not9.i9.i29, label %102, label %100

100:                                              ; preds = %95
  %101 = call ptr @realloc(ptr noundef nonnull %97, i64 noundef %99) #22
  br label %104

102:                                              ; preds = %95
  %103 = call noalias ptr @malloc(i64 noundef %99) #23
  br label %104

104:                                              ; preds = %102, %100
  %105 = phi ptr [ %101, %100 ], [ %103, %102 ]
  store ptr %105, ptr %.phi.trans.insert.i27, align 8, !tbaa !44
  store i32 %96, ptr %5, align 8, !tbaa !43
  br label %Vec_IntPush.exit32

Vec_IntPush.exit32:                               ; preds = %.Vec_IntGrow.exit10_crit_edge.i26, %Vec_IntGrow.exit.i31, %104
  %106 = phi ptr [ %.pre.i28, %.Vec_IntGrow.exit10_crit_edge.i26 ], [ %105, %104 ], [ %94, %Vec_IntGrow.exit.i31 ]
  %107 = load i32, ptr %9, align 4, !tbaa !41
  %108 = add nsw i32 %107, 1
  store i32 %108, ptr %9, align 4, !tbaa !41
  %109 = sext i32 %107 to i64
  %110 = getelementptr inbounds i32, ptr %106, i64 %109
  store i32 %82, ptr %110, align 4, !tbaa !19
  %indvars.iv.next = add nuw nsw i64 %indvars.iv, 1
  %.val = load i32, ptr %40, align 4, !tbaa !41
  %111 = sext i32 %.val to i64
  %112 = icmp slt i64 %indvars.iv.next, %111
  br i1 %112, label %46, label %.critedge, !llvm.loop !121

.critedge:                                        ; preds = %Vec_IntPush.exit32, %Vec_IntPush.exit
  %113 = load i32, ptr %9, align 4, !tbaa !41
  %114 = add nsw i32 %113, -1
  store i32 %114, ptr %9, align 4, !tbaa !41
  call void @llvm.lifetime.end.p0(i64 4, ptr nonnull %8) #21
  call void @llvm.lifetime.end.p0(i64 4, ptr nonnull %7) #21
  ret void
}